target datalayout = "e-m:e-p270:32:32-p271:32:32-p272:64:64-i64:64-i128:128-f80:128-n8:16:32:64-S128"
target triple = "x86_64-pc-linux-gnu"

%struct.H5F_t = type { ptr, ptr, ptr, ptr, i32, ptr, i8, i8, ptr, i32 }

@.str = private unnamed_addr constant [109 x i8] c"generated/home/dtcxzyw/WorkSpace/Projects/compilers/llvm-opt-benchmark/bench/hdf5/hdf5/src/H5VLnative_file.c\00", align 1
@__func__.H5VL__native_file_create = private unnamed_addr constant [25 x i8] c"H5VL__native_file_create\00", align 1
@H5E_FILE_g = external global i64, align 8
@H5E_CANTOPENFILE_g = external global i64, align 8
@.str.1 = private unnamed_addr constant [22 x i8] c"unable to create file\00", align 1
@H5E_CANTCLOSEFILE_g = external global i64, align 8
@.str.2 = private unnamed_addr constant [22 x i8] c"problems closing file\00", align 1

; Function Attrs: nounwind uwtable
define ptr @H5VL__native_file_create(ptr noundef %0, i32 noundef %1, i64 noundef %2, i64 noundef %3, i64 noundef %4, ptr noundef %5) #0 {
  %7 = alloca ptr, align 8
  %8 = alloca i32, align 4
  %9 = alloca i64, align 8
  %10 = alloca i64, align 8
  %11 = alloca i64, align 8
  %12 = alloca ptr, align 8
  %13 = alloca ptr, align 8
  %14 = alloca ptr, align 8
  %15 = alloca i8, align 1
  store ptr %0, ptr %7, align 8, !tbaa !3
  store i32 %1, ptr %8, align 4, !tbaa !8
  store i64 %2, ptr %9, align 8, !tbaa !10
  store i64 %3, ptr %10, align 8, !tbaa !10
  store i64 %4, ptr %11, align 8, !tbaa !10
  store ptr %5, ptr %12, align 8, !tbaa !12
  call void @llvm.lifetime.start.p0(i64 8, ptr %13) #5
  store ptr null, ptr %13, align 8, !tbaa !13
  call void @llvm.lifetime.start.p0(i64 8, ptr %14) #5
  store ptr null, ptr %14, align 8, !tbaa !12
  call void @llvm.lifetime.start.p0(i64 1, ptr %15) #5
  store i8 0, ptr %15, align 1, !tbaa !15
  %16 = load i32, ptr %8, align 4, !tbaa !8
  %17 = and i32 %16, 6
  %18 = icmp eq i32 0, %17
  br i1 %18, label %19, label %22

19:                                               ; preds = %6
  %20 = load i32, ptr %8, align 4, !tbaa !8
  %21 = or i32 %20, 4
  store i32 %21, ptr %8, align 4, !tbaa !8
  br label %22

22:                                               ; preds = %19, %6
  %23 = load i32, ptr %8, align 4, !tbaa !8
  %24 = or i32 %23, 17
  store i32 %24, ptr %8, align 4, !tbaa !8
  %25 = load ptr, ptr %7, align 8, !tbaa !3
  %26 = load i32, ptr %8, align 4, !tbaa !8
  %27 = load i64, ptr %9, align 8, !tbaa !10
  %28 = load i64, ptr %10, align 8, !tbaa !10
  %29 = call i32 @H5F_open(i1 noundef zeroext false, ptr noundef %13, ptr noundef %25, i32 noundef %26, i64 noundef %27, i64 noundef %28)
  %30 = icmp slt i32 %29, 0
  br i1 %30, label %31, label %50

31:                                               ; preds = %22
  br label %32

32:                                               ; preds = %31
  br label %33

33:                                               ; preds = %32
  br label %34

34:                                               ; preds = %33
  %35 = load i64, ptr @H5E_FILE_g, align 8, !tbaa !10
  %36 = load i64, ptr @H5E_CANTOPENFILE_g, align 8, !tbaa !10
  %37 = call i32 (ptr, ptr, i32, i64, i64, ptr, ...) @H5E_printf_stack(ptr noundef @.str, ptr noundef @__func__.H5VL__native_file_create, i32 noundef 94, i64 noundef %35, i64 noundef %36, ptr noundef @.str.1)
  br label %38

38:                                               ; preds = %34
  br label %39

39:                                               ; preds = %38
  store i8 1, ptr %15, align 1, !tbaa !15
  %40 = load i8, ptr %15, align 1, !tbaa !15, !range !17, !noundef !18
  %41 = trunc i8 %40 to i1
  %42 = zext i1 %41 to i8
  store i8 %42, ptr %15, align 1, !tbaa !15
  br label %43

43:                                               ; preds = %39
  br label %44

44:                                               ; preds = %43
  br label %45

45:                                               ; preds = %44
  store ptr null, ptr %14, align 8, !tbaa !12
  br label %54

46:                                               ; No predecessors!
  br label %47

47:                                               ; preds = %46
  br label %48

48:                                               ; preds = %47
  br label %49

49:                                               ; preds = %48
  br label %50

50:                                               ; preds = %49, %22
  %51 = load ptr, ptr %13, align 8, !tbaa !13
  %52 = getelementptr inbounds nuw %struct.H5F_t, ptr %51, i32 0, i32 6
  store i8 1, ptr %52, align 8, !tbaa !19
  %53 = load ptr, ptr %13, align 8, !tbaa !13
  store ptr %53, ptr %14, align 8, !tbaa !12
  br label %54

54:                                               ; preds = %50, %45
  %55 = load ptr, ptr %14, align 8, !tbaa !12
  %56 = icmp eq ptr null, %55
  br i1 %56, label %57, label %81

57:                                               ; preds = %54
  %58 = load ptr, ptr %13, align 8, !tbaa !13
  %59 = icmp ne ptr %58, null
  br i1 %59, label %60, label %81

60:                                               ; preds = %57
  %61 = load ptr, ptr %13, align 8, !tbaa !13
  %62 = call i32 @H5F__close(ptr noundef %61)
  %63 = icmp slt i32 %62, 0
  br i1 %63, label %64, label %80

64:                                               ; preds = %60
  br label %65

65:                                               ; preds = %64
  br label %66

66:                                               ; preds = %65
  br label %67

67:                                               ; preds = %66
  %68 = load i64, ptr @H5E_FILE_g, align 8, !tbaa !10
  %69 = load i64, ptr @H5E_CANTCLOSEFILE_g, align 8, !tbaa !10
  %70 = call i32 (ptr, ptr, i32, i64, i64, ptr, ...) @H5E_printf_stack(ptr noundef @.str, ptr noundef @__func__.H5VL__native_file_create, i32 noundef 102, i64 noundef %68, i64 noundef %69, ptr noundef @.str.2)
  br label %71

71:                                               ; preds = %67
  br label %72

72:                                               ; preds = %71
  store i8 1, ptr %15, align 1, !tbaa !15
  %73 = load i8, ptr %15, align 1, !tbaa !15, !range !17, !noundef !18
  %74 = trunc i8 %73 to i1
  %75 = zext i1 %74 to i8
  store i8 %75, ptr %15, align 1, !tbaa !15
  br label %76

76:                                               ; preds = %72
  br label %77

77:                                               ; preds = %76
  store ptr null, ptr %14, align 8, !tbaa !12
  br label %78

78:                                               ; preds = %77
  br label %79

79:                                               ; preds = %78
  br label %80

80:                                               ; preds = %79, %60
  br label %81

81:                                               ; preds = %80, %57, %54
  %82 = load ptr, ptr %14, align 8, !tbaa !12
  call void @llvm.lifetime.end.p0(i64 1, ptr %15) #5
  call void @llvm.lifetime.end.p0(i64 8, ptr %14) #5
  call void @llvm.lifetime.end.p0(i64 8, ptr %13) #5
  ret ptr %82
}