; Function Attrs: nounwind uwtable
define ptr @H5VL__native_file_create(ptr noundef %0, i32 noundef %1, i64 noundef %2, i64 noundef %3, i64 noundef %4, ptr noundef readnone captures(none) %5) local_unnamed_addr #0 {
  %7 = alloca ptr, align 8
  call void @llvm.lifetime.start.p0(i64 8, ptr nonnull %7) #6
  store ptr null, ptr %7, align 8, !tbaa !3
  %8 = and i32 %1, 6
  %9 = icmp eq i32 %8, 0
  %10 = or disjoint i32 %1, 4
  %spec.select = select i1 %9, i32 %10, i32 %1
  %11 = or i32 %spec.select, 17
  %12 = call i32 @H5F_open(i1 noundef zeroext false, ptr noundef nonnull %7, ptr noundef %0, i32 noundef %11, i64 noundef %2, i64 noundef %3) #6
  %13 = icmp slt i32 %12, 0
  br i1 %13, label %16, label %.thread

.thread:                                          ; preds = %6
  %14 = load ptr, ptr %7, align 8, !tbaa !3
  %15 = getelementptr inbounds nuw i8, ptr %14, i64 48
  store i8 1, ptr %15, align 8, !tbaa !8
  br label %28

16:                                               ; preds = %6
  %17 = load i64, ptr @H5E_FILE_g, align 8, !tbaa !16
  %18 = load i64, ptr @H5E_CANTOPENFILE_g, align 8, !tbaa !16
  %19 = call i32 (ptr, ptr, i32, i64, i64, ptr, ...) @H5E_printf_stack(ptr noundef nonnull @.str, ptr noundef nonnull @__func__.H5VL__native_file_create, i32 noundef 94, i64 noundef %17, i64 noundef %18, ptr noundef nonnull @.str.1) #6
  %20 = load ptr, ptr %7, align 8
  %.not = icmp eq ptr %20, null
  br i1 %.not, label %28, label %21

21:                                               ; preds = %16
  %22 = call i32 @H5F__close(ptr noundef nonnull %20) #6
  %23 = icmp slt i32 %22, 0
  br i1 %23, label %24, label %28

24:                                               ; preds = %21
  %25 = load i64, ptr @H5E_FILE_g, align 8, !tbaa !16
  %26 = load i64, ptr @H5E_CANTCLOSEFILE_g, align 8, !tbaa !16
  %27 = call i32 (ptr, ptr, i32, i64, i64, ptr, ...) @H5E_printf_stack(ptr noundef nonnull @.str, ptr noundef nonnull @__func__.H5VL__native_file_create, i32 noundef 102, i64 noundef %25, i64 noundef %26, ptr noundef nonnull @.str.2) #6
  br label %28

28:                                               ; preds = %.thread, %21, %24, %16
  %.1 = phi ptr [ null, %24 ], [ null, %21 ], [ null, %16 ], [ %14, %.thread ]
  call void @llvm.lifetime.end.p0(i64 8, ptr nonnull %7) #6
  ret ptr %.1
}